; Function Attrs: mustprogress nounwind uwtable
define dso_local void @_ZN4node10contextify16ContextifyScriptD2Ev(ptr noundef nonnull align 8 dereferenceable(40) %this) unnamed_addr #3 align 2 {
entry:
  store ptr getelementptr inbounds ({ [19 x ptr] }, ptr @_ZTVN4node10contextify16ContextifyScriptE, i64 0, i32 0, i64 2), ptr %this, align 8
  %script_ = getelementptr inbounds i8, ptr %this, i64 32
  %0 = load ptr, ptr %script_, align 8
  %cmp.i.i = icmp eq ptr %0, null
  br i1 %cmp.i.i, label %_ZN2v814PersistentBaseINS_13UnboundScriptEE5ResetEv.exit, label %if.end.i

if.end.i:                                         ; preds = %entry
  tail call void @_ZN2v812api_internal13DisposeGlobalEPm(ptr noundef nonnull %0) #21
  store ptr null, ptr %script_, align 8
  br label %_ZN2v814PersistentBaseINS_13UnboundScriptEE5ResetEv.exit

_ZN2v814PersistentBaseINS_13UnboundScriptEE5ResetEv.exit: ; preds = %entry, %if.end.i
  tail call void @_ZN4node10BaseObjectD2Ev(ptr noundef nonnull align 8 dereferenceable(32) %this) #21
  ret void
}